target datalayout = "e-m:e-p270:32:32-p271:32:32-p272:64:64-i64:64-i128:128-f80:128-n8:16:32:64-S128"
target triple = "x86_64-pc-linux-gnu"

%"class.icu_77::CollationFastLatinBuilder" = type <{ %"class.icu_77::UObject", i64, i64, [448 x [2 x i64]], %"class.icu_77::UVector64", %"class.icu_77::UVector64", ptr, [4 x i32], i32, i32, i32, i32, i8, [7 x i8], %"class.icu_77::UnicodeString", i32, [4 x i8] }>
%"class.icu_77::UObject" = type { ptr }
%"class.icu_77::UVector64" = type { %"class.icu_77::UObject", i32, i32, i32, ptr }
%"class.icu_77::UnicodeString" = type { %"class.icu_77::Replaceable", %"union.icu_77::UnicodeString::StackBufferOrFields" }
%"class.icu_77::Replaceable" = type { %"class.icu_77::UObject" }
%"union.icu_77::UnicodeString::StackBufferOrFields" = type { %struct.anon.0, [32 x i8] }
%struct.anon.0 = type { i16, i32, i32, ptr }

; Function Attrs: inlinehint mustprogress nounwind uwtable
define linkonce_odr void @_ZN6icu_7713UnicodeString14setShortLengthEi(ptr noundef nonnull align 8 dereferenceable(64) %0, i32 noundef %1) #1 comdat align 2 {
  %3 = alloca ptr, align 8
  %4 = alloca i32, align 4
  store ptr %0, ptr %3, align 8, !tbaa !31
  store i32 %1, ptr %4, align 4, !tbaa !38
  %5 = load ptr, ptr %3, align 8
  %6 = getelementptr inbounds nuw %"class.icu_77::UnicodeString", ptr %5, i32 0, i32 1
  %7 = getelementptr inbounds nuw %struct.anon.0, ptr %6, i32 0, i32 0
  %8 = load i16, ptr %7, align 8, !tbaa !33
  %9 = sext i16 %8 to i32
  %10 = and i32 %9, 31
  %11 = load i32, ptr %4, align 4, !tbaa !38
  %12 = shl i32 %11, 5
  %13 = or i32 %10, %12
  %14 = trunc i32 %13 to i16
  %15 = getelementptr inbounds nuw %"class.icu_77::UnicodeString", ptr %5, i32 0, i32 1
  %16 = getelementptr inbounds nuw %struct.anon.0, ptr %15, i32 0, i32 0
  store i16 %14, ptr %16, align 8, !tbaa !33
  ret void
}

; Function Attrs: inlinehint mustprogress nounwind uwtable
define linkonce_odr noundef i32 @_ZNK6icu_7713UnicodeString14getShortLengthEv(ptr noundef nonnull align 8 dereferenceable(64) %0) #1 comdat align 2 {
  %2 = alloca ptr, align 8
  store ptr %0, ptr %2, align 8, !tbaa !31
  %3 = load ptr, ptr %2, align 8
  %4 = getelementptr inbounds nuw %"class.icu_77::UnicodeString", ptr %3, i32 0, i32 1
  %5 = getelementptr inbounds nuw %struct.anon.0, ptr %4, i32 0, i32 0
  %6 = load i16, ptr %5, align 8, !tbaa !33
  %7 = sext i16 %6 to i32
  %8 = ashr i32 %7, 5
  ret i32 %8
}

; Function Attrs: inlinehint mustprogress nounwind uwtable
define linkonce_odr noundef signext i8 @_ZNK6icu_7713UnicodeString14hasShortLengthEv(ptr noundef nonnull align 8 dereferenceable(64) %0) #1 comdat align 2 {
  %2 = alloca ptr, align 8
  store ptr %0, ptr %2, align 8, !tbaa !31
  %3 = load ptr, ptr %2, align 8
  %4 = getelementptr inbounds nuw %"class.icu_77::UnicodeString", ptr %3, i32 0, i32 1
  %5 = getelementptr inbounds nuw %struct.anon.0, ptr %4, i32 0, i32 0
  %6 = load i16, ptr %5, align 8, !tbaa !33
  %7 = sext i16 %6 to i32
  %8 = icmp sge i32 %7, 0
  %9 = zext i1 %8 to i8
  ret i8 %9
}

; Function Attrs: inlinehint mustprogress uwtable
define linkonce_odr void @_ZN6icu_7713UnicodeString9setLengthEi(ptr noundef nonnull align 8 dereferenceable(64) %0, i32 noundef %1) #3 comdat align 2 {
  %3 = alloca ptr, align 8
  %4 = alloca i32, align 4
  store ptr %0, ptr %3, align 8, !tbaa !31
  store i32 %1, ptr %4, align 4, !tbaa !38
  %5 = load ptr, ptr %3, align 8
  %6 = load i32, ptr %4, align 4, !tbaa !38
  %7 = icmp sle i32 %6, 1023
  br i1 %7, label %8, label %10

8:                                                ; preds = %2
  %9 = load i32, ptr %4, align 4, !tbaa !38
  call void @_ZN6icu_7713UnicodeString14setShortLengthEi(ptr noundef nonnull align 8 dereferenceable(64) %5, i32 noundef %9)
  br label %20

10:                                               ; preds = %2
  %11 = getelementptr inbounds nuw %"class.icu_77::UnicodeString", ptr %5, i32 0, i32 1
  %12 = getelementptr inbounds nuw %struct.anon.0, ptr %11, i32 0, i32 0
  %13 = load i16, ptr %12, align 8, !tbaa !33
  %14 = sext i16 %13 to i32
  %15 = or i32 %14, 65504
  %16 = trunc i32 %15 to i16
  store i16 %16, ptr %12, align 8, !tbaa !33
  %17 = load i32, ptr %4, align 4, !tbaa !38
  %18 = getelementptr inbounds nuw %"class.icu_77::UnicodeString", ptr %5, i32 0, i32 1
  %19 = getelementptr inbounds nuw %struct.anon.0, ptr %18, i32 0, i32 1
  store i32 %17, ptr %19, align 4, !tbaa !33
  br label %20

20:                                               ; preds = %10, %8
  ret void
}

; Function Attrs: inlinehint mustprogress uwtable
define linkonce_odr noundef i32 @_ZNK6icu_7713UnicodeString6lengthEv(ptr noundef nonnull align 8 dereferenceable(64) %0) #3 comdat align 2 {
  %2 = alloca ptr, align 8
  store ptr %0, ptr %2, align 8, !tbaa !31
  %3 = load ptr, ptr %2, align 8
  %4 = call noundef signext i8 @_ZNK6icu_7713UnicodeString14hasShortLengthEv(ptr noundef nonnull align 8 dereferenceable(64) %3)
  %5 = icmp ne i8 %4, 0
  br i1 %5, label %6, label %8

6:                                                ; preds = %1
  %7 = call noundef i32 @_ZNK6icu_7713UnicodeString14getShortLengthEv(ptr noundef nonnull align 8 dereferenceable(64) %3)
  br label %12

8:                                                ; preds = %1
  %9 = getelementptr inbounds nuw %"class.icu_77::UnicodeString", ptr %3, i32 0, i32 1
  %10 = getelementptr inbounds nuw %struct.anon.0, ptr %9, i32 0, i32 1
  %11 = load i32, ptr %10, align 4, !tbaa !33
  br label %12

12:                                               ; preds = %8, %6
  %13 = phi i32 [ %7, %6 ], [ %11, %8 ]
  ret i32 %13
}

; Function Attrs: inlinehint mustprogress nounwind uwtable
define linkonce_odr noundef signext i8 @_ZNK6icu_7713UnicodeString7isBogusEv(ptr noundef nonnull align 8 dereferenceable(64) %0) #1 comdat align 2 {
  %2 = alloca ptr, align 8
  store ptr %0, ptr %2, align 8, !tbaa !31
  %3 = load ptr, ptr %2, align 8
  %4 = getelementptr inbounds nuw %"class.icu_77::UnicodeString", ptr %3, i32 0, i32 1
  %5 = getelementptr inbounds nuw %struct.anon.0, ptr %4, i32 0, i32 0
  %6 = load i16, ptr %5, align 8, !tbaa !33
  %7 = sext i16 %6 to i32
  %8 = and i32 %7, 1
  %9 = trunc i32 %8 to i8
  ret i8 %9
}

; Function Attrs: inlinehint mustprogress uwtable
define linkonce_odr noundef signext i8 @_ZN6icu_7713UnicodeString8truncateEi(ptr noundef nonnull align 8 dereferenceable(64) %0, i32 noundef %1) #3 comdat align 2 {
  %3 = alloca i8, align 1
  %4 = alloca ptr, align 8
  %5 = alloca i32, align 4
  store ptr %0, ptr %4, align 8, !tbaa !31
  store i32 %1, ptr %5, align 4, !tbaa !38
  %6 = load ptr, ptr %4, align 8
  %7 = call noundef signext i8 @_ZNK6icu_7713UnicodeString7isBogusEv(ptr noundef nonnull align 8 dereferenceable(64) %6)
  %8 = icmp ne i8 %7, 0
  br i1 %8, label %9, label %13

9:                                                ; preds = %2
  %10 = load i32, ptr %5, align 4, !tbaa !38
  %11 = icmp eq i32 %10, 0
  br i1 %11, label %12, label %13

12:                                               ; preds = %9
  call void @_ZN6icu_7713UnicodeString7unBogusEv(ptr noundef nonnull align 8 dereferenceable(64) %6)
  store i8 0, ptr %3, align 1
  br label %20

13:                                               ; preds = %9, %2
  %14 = load i32, ptr %5, align 4, !tbaa !38
  %15 = call noundef i32 @_ZNK6icu_7713UnicodeString6lengthEv(ptr noundef nonnull align 8 dereferenceable(64) %6)
  %16 = icmp ult i32 %14, %15
  br i1 %16, label %17, label %19

17:                                               ; preds = %13
  %18 = load i32, ptr %5, align 4, !tbaa !38
  call void @_ZN6icu_7713UnicodeString9setLengthEi(ptr noundef nonnull align 8 dereferenceable(64) %6, i32 noundef %18)
  store i8 1, ptr %3, align 1
  br label %20

19:                                               ; preds = %13
  store i8 0, ptr %3, align 1
  br label %20

20:                                               ; preds = %19, %17, %12
  %21 = load i8, ptr %3, align 1
  ret i8 %21
}

; Function Attrs: mustprogress uwtable
define void @_ZN6icu_7725CollationFastLatinBuilder8resetCEsEv(ptr noundef nonnull align 8 dereferenceable(7372) %0) #0 align 2 {
  %2 = alloca ptr, align 8
  store ptr %0, ptr %2, align 8, !tbaa !3
  %3 = load ptr, ptr %2, align 8
  %4 = getelementptr inbounds nuw %"class.icu_77::CollationFastLatinBuilder", ptr %3, i32 0, i32 4
  call void @_ZN6icu_779UVector6417removeAllElementsEv(ptr noundef nonnull align 8 dereferenceable(32) %4)
  %5 = getelementptr inbounds nuw %"class.icu_77::CollationFastLatinBuilder", ptr %3, i32 0, i32 5
  call void @_ZN6icu_779UVector6417removeAllElementsEv(ptr noundef nonnull align 8 dereferenceable(32) %5)
  %6 = getelementptr inbounds nuw %"class.icu_77::CollationFastLatinBuilder", ptr %3, i32 0, i32 12
  store i8 0, ptr %6, align 8, !tbaa !27
  %7 = getelementptr inbounds nuw %"class.icu_77::CollationFastLatinBuilder", ptr %3, i32 0, i32 14
  %8 = getelementptr inbounds nuw %"class.icu_77::CollationFastLatinBuilder", ptr %3, i32 0, i32 15
  %9 = load i32, ptr %8, align 8, !tbaa !28
  %10 = call noundef signext i8 @_ZN6icu_7713UnicodeString8truncateEi(ptr noundef nonnull align 8 dereferenceable(64) %7, i32 noundef %9)
  ret void
}