; Function Attrs: mustprogress uwtable
define void @_ZN6icu_7725CollationFastLatinBuilder8resetCEsEv(ptr noundef nonnull align 8 dereferenceable(7372) %0) local_unnamed_addr #0 align 2 {
  %2 = getelementptr inbounds nuw i8, ptr %0, i64 7192
  tail call void @_ZN6icu_779UVector6417removeAllElementsEv(ptr noundef nonnull align 8 dereferenceable(32) %2)
  %3 = getelementptr inbounds nuw i8, ptr %0, i64 7224
  tail call void @_ZN6icu_779UVector6417removeAllElementsEv(ptr noundef nonnull align 8 dereferenceable(32) %3)
  %4 = getelementptr inbounds nuw i8, ptr %0, i64 7296
  store i8 0, ptr %4, align 8, !tbaa !24
  %5 = getelementptr inbounds nuw i8, ptr %0, i64 7368
  %6 = load i32, ptr %5, align 8, !tbaa !19
  %7 = getelementptr inbounds nuw i8, ptr %0, i64 7312
  %8 = load i16, ptr %7, align 8, !tbaa !18
  %9 = and i16 %8, 1
  %10 = icmp ne i16 %9, 0
  %11 = icmp eq i32 %6, 0
  %or.cond.i = and i1 %11, %10
  br i1 %or.cond.i, label %12, label %14

12:                                               ; preds = %1
  %13 = getelementptr inbounds nuw i8, ptr %0, i64 7304
  tail call void @_ZN6icu_7713UnicodeString7unBogusEv(ptr noundef nonnull align 8 dereferenceable(64) %13)
  br label %_ZN6icu_7713UnicodeString8truncateEi.exit

14:                                               ; preds = %1
  %15 = icmp slt i16 %8, 0
  %16 = ashr i16 %8, 5
  %17 = sext i16 %16 to i32
  %18 = getelementptr inbounds nuw i8, ptr %0, i64 7316
  %19 = load i32, ptr %18, align 4
  %20 = select i1 %15, i32 %19, i32 %17
  %21 = icmp ult i32 %6, %20
  br i1 %21, label %22, label %_ZN6icu_7713UnicodeString8truncateEi.exit

22:                                               ; preds = %14
  %23 = icmp slt i32 %6, 1024
  br i1 %23, label %24, label %28

24:                                               ; preds = %22
  %25 = and i16 %8, 31
  %.tr.i.i.i = trunc i32 %6 to i16
  %26 = shl i16 %.tr.i.i.i, 5
  %27 = or disjoint i16 %25, %26
  store i16 %27, ptr %7, align 8, !tbaa !18
  br label %_ZN6icu_7713UnicodeString8truncateEi.exit

28:                                               ; preds = %22
  %29 = or i16 %8, -32
  store i16 %29, ptr %7, align 8, !tbaa !18
  store i32 %6, ptr %18, align 4, !tbaa !18
  br label %_ZN6icu_7713UnicodeString8truncateEi.exit

_ZN6icu_7713UnicodeString8truncateEi.exit:        ; preds = %12, %14, %24, %28
  ret void
}